target datalayout = "e-m:e-p270:32:32-p271:32:32-p272:64:64-i64:64-i128:128-f80:128-n8:16:32:64-S128"
target triple = "x86_64-pc-linux-gnu"

%struct.H5VL_object_get_args_t = type { i32, %union.anon.0 }
%union.anon.0 = type { %struct.anon.1 }
%struct.anon.1 = type { i64, ptr, ptr }
%struct.H5VL_loc_params_t = type { i32, i32, %union.anon.4 }
%union.anon.4 = type { %struct.H5VL_loc_by_idx }
%struct.H5VL_loc_by_idx = type { ptr, i32, i32, i64, i64 }

@H5_libinit_g = external global i8, align 1
@H5_libterm_g = external global i8, align 1
@.str = private unnamed_addr constant [97 x i8] c"generated/home/dtcxzyw/WorkSpace/Projects/compilers/llvm-opt-benchmark/bench/hdf5/hdf5/src/H5I.c\00", align 1
@H5E_FUNC_g = external global i64, align 8
@H5E_CANTINIT_g = external global i64, align 8
@.str.1 = private unnamed_addr constant [30 x i8] c"library initialization failed\00", align 1
@H5E_CANTSET_g = external global i64, align 8
@.str.2 = private unnamed_addr constant [22 x i8] c"can't set API context\00", align 1
@H5E_ID_g = external global i64, align 8
@H5E_CANTGET_g = external global i64, align 8
@H5E_BADTYPE_g = external global i64, align 8
@__func__.H5Iget_name = private unnamed_addr constant [12 x i8] c"H5Iget_name\00", align 1
@.str.24 = private unnamed_addr constant [19 x i8] c"invalid identifier\00", align 1
@H5P_LST_DATASET_XFER_ID_g = external global i64, align 8
@.str.25 = private unnamed_addr constant [27 x i8] c"can't retrieve object name\00", align 1

; Function Attrs: nounwind uwtable
define i64 @H5Iget_name(i64 noundef %0, ptr noundef %1, i64 noundef %2) #0 {
  %4 = alloca i64, align 8
  %5 = alloca ptr, align 8
  %6 = alloca i64, align 8
  %7 = alloca ptr, align 8
  %8 = alloca %struct.H5VL_object_get_args_t, align 8
  %9 = alloca %struct.H5VL_loc_params_t, align 8
  %10 = alloca i64, align 8
  %11 = alloca i64, align 8
  %12 = alloca i8, align 1
  %13 = alloca i8, align 1
  store i64 %0, ptr %4, align 8
  store ptr %1, ptr %5, align 8
  store i64 %2, ptr %6, align 8
  store ptr null, ptr %7, align 8
  store i64 0, ptr %10, align 8
  store i64 -1, ptr %11, align 8
  store i8 0, ptr %12, align 1
  store i8 0, ptr %13, align 1
  %14 = load i8, ptr @H5_libinit_g, align 1
  %15 = trunc i8 %14 to i1
  br i1 %15, label %20, label %16

16:                                               ; preds = %3
  %17 = load i8, ptr @H5_libterm_g, align 1
  %18 = trunc i8 %17 to i1
  %19 = xor i1 %18, true
  br label %20

20:                                               ; preds = %16, %3
  %21 = phi i1 [ false, %3 ], [ %19, %16 ]
  %22 = xor i1 %21, true
  %23 = xor i1 %22, true
  %24 = zext i1 %23 to i32
  %25 = sext i32 %24 to i64
  %26 = icmp ne i64 %25, 0
  br i1 %26, label %27, label %51

27:                                               ; preds = %20
  %28 = call i32 @H5_init_library()
  %29 = icmp slt i32 %28, 0
  %30 = xor i1 %29, true
  %31 = xor i1 %30, true
  %32 = zext i1 %31 to i32
  %33 = sext i32 %32 to i64
  %34 = icmp ne i64 %33, 0
  br i1 %34, label %35, label %50

35:                                               ; preds = %27
  br label %36

36:                                               ; preds = %35
  br label %37

37:                                               ; preds = %36
  br label %38

38:                                               ; preds = %37
  %39 = load i64, ptr @H5E_FUNC_g, align 8
  %40 = load i64, ptr @H5E_CANTINIT_g, align 8
  %41 = call i32 (ptr, ptr, i32, i64, i64, ptr, ...) @H5E_printf_stack(ptr noundef @.str, ptr noundef @__func__.H5Iget_name, i32 noundef 890, i64 noundef %39, i64 noundef %40, ptr noundef @.str.1)
  br label %42

42:                                               ; preds = %38
  store i8 1, ptr %13, align 1
  %43 = load i8, ptr %13, align 1
  %44 = trunc i8 %43 to i1
  %45 = zext i1 %44 to i8
  store i8 %45, ptr %13, align 1
  br label %46

46:                                               ; preds = %42
  br label %47

47:                                               ; preds = %46
  store i64 -1, ptr %11, align 8
  br label %130

48:                                               ; No predecessors!
  br label %49

49:                                               ; preds = %48
  br label %50

50:                                               ; preds = %49, %27
  br label %51

51:                                               ; preds = %50, %20
  %52 = call i32 @H5CX_push()
  %53 = icmp slt i32 %52, 0
  %54 = xor i1 %53, true
  %55 = xor i1 %54, true
  %56 = zext i1 %55 to i32
  %57 = sext i32 %56 to i64
  %58 = icmp ne i64 %57, 0
  br i1 %58, label %59, label %74

59:                                               ; preds = %51
  br label %60

60:                                               ; preds = %59
  br label %61

61:                                               ; preds = %60
  br label %62

62:                                               ; preds = %61
  %63 = load i64, ptr @H5E_FUNC_g, align 8
  %64 = load i64, ptr @H5E_CANTSET_g, align 8
  %65 = call i32 (ptr, ptr, i32, i64, i64, ptr, ...) @H5E_printf_stack(ptr noundef @.str, ptr noundef @__func__.H5Iget_name, i32 noundef 890, i64 noundef %63, i64 noundef %64, ptr noundef @.str.2)
  br label %66

66:                                               ; preds = %62
  store i8 1, ptr %13, align 1
  %67 = load i8, ptr %13, align 1
  %68 = trunc i8 %67 to i1
  %69 = zext i1 %68 to i8
  store i8 %69, ptr %13, align 1
  br label %70

70:                                               ; preds = %66
  br label %71

71:                                               ; preds = %70
  store i64 -1, ptr %11, align 8
  br label %130

72:                                               ; No predecessors!
  br label %73

73:                                               ; preds = %72
  br label %75

74:                                               ; preds = %51
  store i8 1, ptr %12, align 1
  br label %75

75:                                               ; preds = %74, %73
  %76 = call i32 @H5E_clear_stack()
  %77 = load i64, ptr %4, align 8
  %78 = call ptr @H5VL_vol_object(i64 noundef %77)
  store ptr %78, ptr %7, align 8
  %79 = icmp eq ptr null, %78
  br i1 %79, label %80, label %95

80:                                               ; preds = %75
  br label %81

81:                                               ; preds = %80
  br label %82

82:                                               ; preds = %81
  br label %83

83:                                               ; preds = %82
  %84 = load i64, ptr @H5E_ID_g, align 8
  %85 = load i64, ptr @H5E_BADTYPE_g, align 8
  %86 = call i32 (ptr, ptr, i32, i64, i64, ptr, ...) @H5E_printf_stack(ptr noundef @.str, ptr noundef @__func__.H5Iget_name, i32 noundef 894, i64 noundef %84, i64 noundef %85, ptr noundef @.str.24)
  br label %87

87:                                               ; preds = %83
  store i8 1, ptr %13, align 1
  %88 = load i8, ptr %13, align 1
  %89 = trunc i8 %88 to i1
  %90 = zext i1 %89 to i8
  store i8 %90, ptr %13, align 1
  br label %91

91:                                               ; preds = %87
  br label %92

92:                                               ; preds = %91
  store i64 -1, ptr %11, align 8
  br label %130

93:                                               ; No predecessors!
  br label %94

94:                                               ; preds = %93
  br label %95

95:                                               ; preds = %94, %75
  %96 = getelementptr inbounds %struct.H5VL_loc_params_t, ptr %9, i32 0, i32 1
  store i32 0, ptr %96, align 4
  %97 = load i64, ptr %4, align 8
  %98 = call i32 @H5I_get_type(i64 noundef %97)
  %99 = getelementptr inbounds %struct.H5VL_loc_params_t, ptr %9, i32 0, i32 0
  store i32 %98, ptr %99, align 8
  %100 = getelementptr inbounds %struct.H5VL_object_get_args_t, ptr %8, i32 0, i32 0
  store i32 1, ptr %100, align 8
  %101 = load i64, ptr %6, align 8
  %102 = getelementptr inbounds %struct.H5VL_object_get_args_t, ptr %8, i32 0, i32 1
  %103 = getelementptr inbounds %struct.anon.1, ptr %102, i32 0, i32 0
  store i64 %101, ptr %103, align 8
  %104 = load ptr, ptr %5, align 8
  %105 = getelementptr inbounds %struct.H5VL_object_get_args_t, ptr %8, i32 0, i32 1
  %106 = getelementptr inbounds %struct.anon.1, ptr %105, i32 0, i32 1
  store ptr %104, ptr %106, align 8
  %107 = getelementptr inbounds %struct.H5VL_object_get_args_t, ptr %8, i32 0, i32 1
  %108 = getelementptr inbounds %struct.anon.1, ptr %107, i32 0, i32 2
  store ptr %10, ptr %108, align 8
  %109 = load ptr, ptr %7, align 8
  %110 = load i64, ptr @H5P_LST_DATASET_XFER_ID_g, align 8
  %111 = call i32 @H5VL_object_get(ptr noundef %109, ptr noundef %9, ptr noundef %8, i64 noundef %110, ptr noundef null)
  %112 = icmp slt i32 %111, 0
  br i1 %112, label %113, label %128

113:                                              ; preds = %95
  br label %114

114:                                              ; preds = %113
  br label %115

115:                                              ; preds = %114
  br label %116

116:                                              ; preds = %115
  %117 = load i64, ptr @H5E_ID_g, align 8
  %118 = load i64, ptr @H5E_CANTGET_g, align 8
  %119 = call i32 (ptr, ptr, i32, i64, i64, ptr, ...) @H5E_printf_stack(ptr noundef @.str, ptr noundef @__func__.H5Iget_name, i32 noundef 908, i64 noundef %117, i64 noundef %118, ptr noundef @.str.25)
  br label %120

120:                                              ; preds = %116
  store i8 1, ptr %13, align 1
  %121 = load i8, ptr %13, align 1
  %122 = trunc i8 %121 to i1
  %123 = zext i1 %122 to i8
  store i8 %123, ptr %13, align 1
  br label %124

124:                                              ; preds = %120
  br label %125

125:                                              ; preds = %124
  store i64 -1, ptr %11, align 8
  br label %130

126:                                              ; No predecessors!
  br label %127

127:                                              ; preds = %126
  br label %128

128:                                              ; preds = %127, %95
  %129 = load i64, ptr %10, align 8
  store i64 %129, ptr %11, align 8
  br label %130

130:                                              ; preds = %128, %125, %92, %71, %47
  %131 = load i8, ptr %12, align 1
  %132 = trunc i8 %131 to i1
  %133 = xor i1 %132, true
  %134 = xor i1 %133, true
  %135 = zext i1 %134 to i32
  %136 = sext i32 %135 to i64
  %137 = icmp ne i64 %136, 0
  br i1 %137, label %138, label %140

138:                                              ; preds = %130
  %139 = call i32 @H5CX_pop(i1 noundef zeroext true)
  store i8 0, ptr %12, align 1
  br label %140

140:                                              ; preds = %138, %130
  %141 = load i8, ptr %13, align 1
  %142 = trunc i8 %141 to i1
  %143 = xor i1 %142, true
  %144 = xor i1 %143, true
  %145 = zext i1 %144 to i32
  %146 = sext i32 %145 to i64
  %147 = icmp ne i64 %146, 0
  br i1 %147, label %148, label %150

148:                                              ; preds = %140
  %149 = call i32 @H5E_dump_api_stack()
  br label %150

150:                                              ; preds = %148, %140
  %151 = load i64, ptr %11, align 8
  ret i64 %151
}