; Function Attrs: nounwind uwtable
define i64 @H5Iget_name(i64 noundef %0, ptr noundef %1, i64 noundef %2) local_unnamed_addr #0 {
  %4 = alloca %struct.H5VL_object_get_args_t, align 8
  %5 = alloca %struct.H5VL_loc_params_t, align 8
  %6 = alloca i64, align 8
  store i64 0, ptr %6, align 8
  %7 = load i8, ptr @H5_libinit_g, align 1
  %8 = trunc i8 %7 to i1
  %9 = load i8, ptr @H5_libterm_g, align 1
  %10 = trunc i8 %9 to i1
  %11 = select i1 %8, i1 true, i1 %10
  br i1 %11, label %19, label %12

12:                                               ; preds = %3
  %13 = tail call i32 @H5_init_library() #3
  %14 = icmp slt i32 %13, 0
  br i1 %14, label %15, label %19

15:                                               ; preds = %12
  %16 = load i64, ptr @H5E_FUNC_g, align 8
  %17 = load i64, ptr @H5E_CANTINIT_g, align 8
  %18 = tail call i32 (ptr, ptr, i32, i64, i64, ptr, ...) @H5E_printf_stack(ptr noundef nonnull @.str, ptr noundef nonnull @__func__.H5Iget_name, i32 noundef 890, i64 noundef %16, i64 noundef %17, ptr noundef nonnull @.str.1) #3
  br label %.thread22

19:                                               ; preds = %12, %3
  %20 = tail call i32 @H5CX_push() #3
  %21 = icmp slt i32 %20, 0
  br i1 %21, label %22, label %26

22:                                               ; preds = %19
  %23 = load i64, ptr @H5E_FUNC_g, align 8
  %24 = load i64, ptr @H5E_CANTSET_g, align 8
  %25 = tail call i32 (ptr, ptr, i32, i64, i64, ptr, ...) @H5E_printf_stack(ptr noundef nonnull @.str, ptr noundef nonnull @__func__.H5Iget_name, i32 noundef 890, i64 noundef %23, i64 noundef %24, ptr noundef nonnull @.str.2) #3
  br label %.thread22

26:                                               ; preds = %19
  %27 = tail call i32 @H5E_clear_stack() #3
  %28 = tail call ptr @H5VL_vol_object(i64 noundef %0) #3
  %29 = icmp eq ptr %28, null
  br i1 %29, label %30, label %34

30:                                               ; preds = %26
  %31 = load i64, ptr @H5E_ID_g, align 8
  %32 = load i64, ptr @H5E_BADTYPE_g, align 8
  %33 = tail call i32 (ptr, ptr, i32, i64, i64, ptr, ...) @H5E_printf_stack(ptr noundef nonnull @.str, ptr noundef nonnull @__func__.H5Iget_name, i32 noundef 894, i64 noundef %31, i64 noundef %32, ptr noundef nonnull @.str.24) #3
  br label %.thread28

34:                                               ; preds = %26
  %35 = getelementptr inbounds i8, ptr %5, i64 4
  store i32 0, ptr %35, align 4
  %36 = tail call i32 @H5I_get_type(i64 noundef %0) #3
  store i32 %36, ptr %5, align 8
  store i32 1, ptr %4, align 8
  %37 = getelementptr inbounds i8, ptr %4, i64 8
  store i64 %2, ptr %37, align 8
  %38 = getelementptr inbounds i8, ptr %4, i64 16
  store ptr %1, ptr %38, align 8
  %39 = getelementptr inbounds i8, ptr %4, i64 24
  store ptr %6, ptr %39, align 8
  %40 = load i64, ptr @H5P_LST_DATASET_XFER_ID_g, align 8
  %41 = call i32 @H5VL_object_get(ptr noundef nonnull %28, ptr noundef nonnull %5, ptr noundef nonnull %4, i64 noundef %40, ptr noundef null) #3
  %42 = icmp slt i32 %41, 0
  br i1 %42, label %43, label %48

43:                                               ; preds = %34
  %44 = load i64, ptr @H5E_ID_g, align 8
  %45 = load i64, ptr @H5E_CANTGET_g, align 8
  %46 = call i32 (ptr, ptr, i32, i64, i64, ptr, ...) @H5E_printf_stack(ptr noundef nonnull @.str, ptr noundef nonnull @__func__.H5Iget_name, i32 noundef 908, i64 noundef %44, i64 noundef %45, ptr noundef nonnull @.str.25) #3
  br label %.thread28

.thread28:                                        ; preds = %43, %30
  %47 = call i32 @H5CX_pop(i1 noundef zeroext true) #3
  br label %.thread22

48:                                               ; preds = %34
  %49 = load i64, ptr %6, align 8
  %50 = call i32 @H5CX_pop(i1 noundef zeroext true) #3
  br label %52

.thread22:                                        ; preds = %22, %15, %.thread28
  %51 = call i32 @H5E_dump_api_stack() #3
  br label %52

52:                                               ; preds = %48, %.thread22
  %.0121725 = phi i64 [ -1, %.thread22 ], [ %49, %48 ]
  ret i64 %.0121725
}